; Function Attrs: mustprogress nofree norecurse nosync nounwind willreturn memory(write, argmem: readwrite, inaccessiblemem: none) uwtable
define dso_local range(i32 0, 2) i32 @qtest_fault_resize_plain_packet(ptr noundef captures(none) %0, i64 noundef %1) local_unnamed_addr #6 {
  %3 = getelementptr inbounds nuw i8, ptr %0, i64 96
  %4 = getelementptr inbounds nuw i8, ptr %0, i64 104
  %5 = load i64, ptr %4, align 8, !tbaa !68
  %6 = getelementptr inbounds nuw i8, ptr %0, i64 112
  %7 = load i64, ptr %6, align 8, !tbaa !69
  %8 = icmp eq i64 %7, 0
  %9 = icmp ugt i64 %1, %7
  %or.cond = or i1 %8, %9
  br i1 %or.cond, label %18, label %10

10:                                               ; preds = %2
  %11 = icmp ugt i64 %1, %5
  br i1 %11, label %12, label %16

12:                                               ; preds = %10
  %13 = load ptr, ptr %3, align 8, !tbaa !62
  %14 = getelementptr inbounds nuw i8, ptr %13, i64 %5
  %15 = sub nuw i64 %1, %5
  tail call void @llvm.memset.p0.i64(ptr align 1 %14, i8 0, i64 %15, i1 false)
  br label %16

16:                                               ; preds = %12, %10
  store i64 %1, ptr %4, align 8, !tbaa !68
  %17 = getelementptr inbounds nuw i8, ptr %0, i64 80
  store i64 %1, ptr %17, align 8, !tbaa !78
  br label %18

18:                                               ; preds = %2, %16
  %.0 = phi i32 [ 1, %16 ], [ 0, %2 ]
  ret i32 %.0
}